target datalayout = "e-m:e-p270:32:32-p271:32:32-p272:64:64-i64:64-i128:128-f80:128-n8:16:32:64-S128"
target triple = "x86_64-pc-linux-gnu"

%struct.Ifd_Man_t_ = type { ptr, i32, i32, ptr, ptr, ptr, ptr, ptr, ptr, ptr }
%struct.Vec_Int_t_ = type { i32, i32, ptr }
%struct.Hsh_IntMan_t_ = type { i32, ptr, ptr, ptr }
%struct.Vec_Wrd_t_ = type { i32, i32, ptr }

@.str = private unnamed_addr constant [11 x i8] c"%d(%d:%d) \00", align 1
@.str.1 = private unnamed_addr constant [2 x i8] c"\0A\00", align 1

; Function Attrs: inlinehint nounwind uwtable
define internal void @Vec_WrdFree(ptr noundef %0) #3 {
  %2 = alloca ptr, align 8
  store ptr %0, ptr %2, align 8, !tbaa !40
  %3 = load ptr, ptr %2, align 8, !tbaa !40
  %4 = getelementptr inbounds nuw %struct.Vec_Wrd_t_, ptr %3, i32 0, i32 2
  %5 = load ptr, ptr %4, align 8, !tbaa !45
  %6 = icmp ne ptr %5, null
  br i1 %6, label %7, label %13

7:                                                ; preds = %1
  %8 = load ptr, ptr %2, align 8, !tbaa !40
  %9 = getelementptr inbounds nuw %struct.Vec_Wrd_t_, ptr %8, i32 0, i32 2
  %10 = load ptr, ptr %9, align 8, !tbaa !45
  call void @free(ptr noundef %10) #12
  %11 = load ptr, ptr %2, align 8, !tbaa !40
  %12 = getelementptr inbounds nuw %struct.Vec_Wrd_t_, ptr %11, i32 0, i32 2
  store ptr null, ptr %12, align 8, !tbaa !45
  br label %14

13:                                               ; preds = %1
  br label %14

14:                                               ; preds = %13, %7
  %15 = load ptr, ptr %2, align 8, !tbaa !40
  %16 = icmp ne ptr %15, null
  br i1 %16, label %17, label %19

17:                                               ; preds = %14
  %18 = load ptr, ptr %2, align 8, !tbaa !40
  call void @free(ptr noundef %18) #12
  store ptr null, ptr %2, align 8, !tbaa !40
  br label %20

19:                                               ; preds = %14
  br label %20

20:                                               ; preds = %19, %17
  ret void
}

; Function Attrs: inlinehint nounwind uwtable
define internal void @Vec_IntFree(ptr noundef %0) #3 {
  %2 = alloca ptr, align 8
  store ptr %0, ptr %2, align 8, !tbaa !28
  %3 = load ptr, ptr %2, align 8, !tbaa !28
  %4 = getelementptr inbounds nuw %struct.Vec_Int_t_, ptr %3, i32 0, i32 2
  %5 = load ptr, ptr %4, align 8, !tbaa !33
  %6 = icmp ne ptr %5, null
  br i1 %6, label %7, label %13

7:                                                ; preds = %1
  %8 = load ptr, ptr %2, align 8, !tbaa !28
  %9 = getelementptr inbounds nuw %struct.Vec_Int_t_, ptr %8, i32 0, i32 2
  %10 = load ptr, ptr %9, align 8, !tbaa !33
  call void @free(ptr noundef %10) #12
  %11 = load ptr, ptr %2, align 8, !tbaa !28
  %12 = getelementptr inbounds nuw %struct.Vec_Int_t_, ptr %11, i32 0, i32 2
  store ptr null, ptr %12, align 8, !tbaa !33
  br label %14

13:                                               ; preds = %1
  br label %14

14:                                               ; preds = %13, %7
  %15 = load ptr, ptr %2, align 8, !tbaa !28
  %16 = icmp ne ptr %15, null
  br i1 %16, label %17, label %19

17:                                               ; preds = %14
  %18 = load ptr, ptr %2, align 8, !tbaa !28
  call void @free(ptr noundef %18) #12
  store ptr null, ptr %2, align 8, !tbaa !28
  br label %20

19:                                               ; preds = %14
  br label %20

20:                                               ; preds = %19, %17
  ret void
}

; Function Attrs: inlinehint nounwind uwtable
define internal void @Hsh_IntManStop(ptr noundef %0) #3 {
  %2 = alloca ptr, align 8
  store ptr %0, ptr %2, align 8, !tbaa !34
  %3 = load ptr, ptr %2, align 8, !tbaa !34
  %4 = getelementptr inbounds nuw %struct.Hsh_IntMan_t_, ptr %3, i32 0, i32 2
  %5 = load ptr, ptr %4, align 8, !tbaa !38
  call void @Vec_IntFree(ptr noundef %5)
  %6 = load ptr, ptr %2, align 8, !tbaa !34
  %7 = getelementptr inbounds nuw %struct.Hsh_IntMan_t_, ptr %6, i32 0, i32 3
  %8 = load ptr, ptr %7, align 8, !tbaa !39
  call void @Vec_WrdFree(ptr noundef %8)
  %9 = load ptr, ptr %2, align 8, !tbaa !34
  %10 = icmp ne ptr %9, null
  br i1 %10, label %11, label %13

11:                                               ; preds = %1
  %12 = load ptr, ptr %2, align 8, !tbaa !34
  call void @free(ptr noundef %12) #12
  store ptr null, ptr %2, align 8, !tbaa !34
  br label %14

13:                                               ; preds = %1
  br label %14

14:                                               ; preds = %13, %11
  ret void
}

; Function Attrs: inlinehint nounwind uwtable
define internal void @Vec_WrdFreeP(ptr noundef %0) #3 {
  %2 = alloca ptr, align 8
  store ptr %0, ptr %2, align 8, !tbaa !49
  %3 = load ptr, ptr %2, align 8, !tbaa !49
  %4 = load ptr, ptr %3, align 8, !tbaa !40
  %5 = icmp eq ptr %4, null
  br i1 %5, label %6, label %7

6:                                                ; preds = %1
  br label %32

7:                                                ; preds = %1
  %8 = load ptr, ptr %2, align 8, !tbaa !49
  %9 = load ptr, ptr %8, align 8, !tbaa !40
  %10 = getelementptr inbounds nuw %struct.Vec_Wrd_t_, ptr %9, i32 0, i32 2
  %11 = load ptr, ptr %10, align 8, !tbaa !45
  %12 = icmp ne ptr %11, null
  br i1 %12, label %13, label %21

13:                                               ; preds = %7
  %14 = load ptr, ptr %2, align 8, !tbaa !49
  %15 = load ptr, ptr %14, align 8, !tbaa !40
  %16 = getelementptr inbounds nuw %struct.Vec_Wrd_t_, ptr %15, i32 0, i32 2
  %17 = load ptr, ptr %16, align 8, !tbaa !45
  call void @free(ptr noundef %17) #12
  %18 = load ptr, ptr %2, align 8, !tbaa !49
  %19 = load ptr, ptr %18, align 8, !tbaa !40
  %20 = getelementptr inbounds nuw %struct.Vec_Wrd_t_, ptr %19, i32 0, i32 2
  store ptr null, ptr %20, align 8, !tbaa !45
  br label %22

21:                                               ; preds = %7
  br label %22

22:                                               ; preds = %21, %13
  %23 = load ptr, ptr %2, align 8, !tbaa !49
  %24 = load ptr, ptr %23, align 8, !tbaa !40
  %25 = icmp ne ptr %24, null
  br i1 %25, label %26, label %30

26:                                               ; preds = %22
  %27 = load ptr, ptr %2, align 8, !tbaa !49
  %28 = load ptr, ptr %27, align 8, !tbaa !40
  call void @free(ptr noundef %28) #12
  %29 = load ptr, ptr %2, align 8, !tbaa !49
  store ptr null, ptr %29, align 8, !tbaa !40
  br label %31

30:                                               ; preds = %22
  br label %31

31:                                               ; preds = %30, %26
  br label %32

32:                                               ; preds = %31, %6
  ret void
}

; Function Attrs: inlinehint nounwind uwtable
define internal void @Vec_IntFreeP(ptr noundef %0) #3 {
  %2 = alloca ptr, align 8
  store ptr %0, ptr %2, align 8, !tbaa !47
  %3 = load ptr, ptr %2, align 8, !tbaa !47
  %4 = load ptr, ptr %3, align 8, !tbaa !28
  %5 = icmp eq ptr %4, null
  br i1 %5, label %6, label %7

6:                                                ; preds = %1
  br label %32

7:                                                ; preds = %1
  %8 = load ptr, ptr %2, align 8, !tbaa !47
  %9 = load ptr, ptr %8, align 8, !tbaa !28
  %10 = getelementptr inbounds nuw %struct.Vec_Int_t_, ptr %9, i32 0, i32 2
  %11 = load ptr, ptr %10, align 8, !tbaa !33
  %12 = icmp ne ptr %11, null
  br i1 %12, label %13, label %21

13:                                               ; preds = %7
  %14 = load ptr, ptr %2, align 8, !tbaa !47
  %15 = load ptr, ptr %14, align 8, !tbaa !28
  %16 = getelementptr inbounds nuw %struct.Vec_Int_t_, ptr %15, i32 0, i32 2
  %17 = load ptr, ptr %16, align 8, !tbaa !33
  call void @free(ptr noundef %17) #12
  %18 = load ptr, ptr %2, align 8, !tbaa !47
  %19 = load ptr, ptr %18, align 8, !tbaa !28
  %20 = getelementptr inbounds nuw %struct.Vec_Int_t_, ptr %19, i32 0, i32 2
  store ptr null, ptr %20, align 8, !tbaa !33
  br label %22

21:                                               ; preds = %7
  br label %22

22:                                               ; preds = %21, %13
  %23 = load ptr, ptr %2, align 8, !tbaa !47
  %24 = load ptr, ptr %23, align 8, !tbaa !28
  %25 = icmp ne ptr %24, null
  br i1 %25, label %26, label %30

26:                                               ; preds = %22
  %27 = load ptr, ptr %2, align 8, !tbaa !47
  %28 = load ptr, ptr %27, align 8, !tbaa !28
  call void @free(ptr noundef %28) #12
  %29 = load ptr, ptr %2, align 8, !tbaa !47
  store ptr null, ptr %29, align 8, !tbaa !28
  br label %31

30:                                               ; preds = %22
  br label %31

31:                                               ; preds = %30, %26
  br label %32

32:                                               ; preds = %31, %6
  ret void
}

; Function Attrs: inlinehint nounwind uwtable
define internal i32 @Vec_IntEntry(ptr noundef %0, i32 noundef %1) #3 {
  %3 = alloca ptr, align 8
  %4 = alloca i32, align 4
  store ptr %0, ptr %3, align 8, !tbaa !28
  store i32 %1, ptr %4, align 4, !tbaa !24
  %5 = load ptr, ptr %3, align 8, !tbaa !28
  %6 = getelementptr inbounds nuw %struct.Vec_Int_t_, ptr %5, i32 0, i32 2
  %7 = load ptr, ptr %6, align 8, !tbaa !33
  %8 = load i32, ptr %4, align 4, !tbaa !24
  %9 = sext i32 %8 to i64
  %10 = getelementptr inbounds i32, ptr %7, i64 %9
  %11 = load i32, ptr %10, align 4, !tbaa !24
  ret i32 %11
}

; Function Attrs: inlinehint nounwind uwtable
define internal i32 @Vec_IntSize(ptr noundef %0) #3 {
  %2 = alloca ptr, align 8
  store ptr %0, ptr %2, align 8, !tbaa !28
  %3 = load ptr, ptr %2, align 8, !tbaa !28
  %4 = getelementptr inbounds nuw %struct.Vec_Int_t_, ptr %3, i32 0, i32 1
  %5 = load i32, ptr %4, align 4, !tbaa !29
  ret i32 %5
}

; Function Attrs: nounwind uwtable
define void @Ifd_ManStop(ptr noundef %0) #0 {
  %2 = alloca ptr, align 8
  %3 = alloca i32, align 4
  %4 = alloca i32, align 4
  %5 = alloca i32, align 4
  store ptr %0, ptr %2, align 8, !tbaa !3
  call void @llvm.lifetime.start.p0(i64 4, ptr %3) #12
  call void @llvm.lifetime.start.p0(i64 4, ptr %4) #12
  call void @llvm.lifetime.start.p0(i64 4, ptr %5) #12
  store i32 0, ptr %5, align 4, !tbaa !24
  store i32 1, ptr %3, align 4, !tbaa !24
  br label %6

6:                                                ; preds = %30, %1
  %7 = load i32, ptr %3, align 4, !tbaa !24
  %8 = load ptr, ptr %2, align 8, !tbaa !3
  %9 = getelementptr inbounds nuw %struct.Ifd_Man_t_, ptr %8, i32 0, i32 6
  %10 = load ptr, ptr %9, align 8, !tbaa !20
  %11 = call i32 @Vec_IntSize(ptr noundef %10)
  %12 = icmp slt i32 %7, %11
  br i1 %12, label %13, label %19

13:                                               ; preds = %6
  %14 = load ptr, ptr %2, align 8, !tbaa !3
  %15 = getelementptr inbounds nuw %struct.Ifd_Man_t_, ptr %14, i32 0, i32 6
  %16 = load ptr, ptr %15, align 8, !tbaa !20
  %17 = load i32, ptr %3, align 4, !tbaa !24
  %18 = call i32 @Vec_IntEntry(ptr noundef %16, i32 noundef %17)
  store i32 %18, ptr %4, align 4, !tbaa !24
  br label %19

19:                                               ; preds = %13, %6
  %20 = phi i1 [ false, %6 ], [ true, %13 ]
  br i1 %20, label %21, label %33

21:                                               ; preds = %19
  %22 = load i32, ptr %3, align 4, !tbaa !24
  %23 = sub nsw i32 %22, 1
  %24 = load i32, ptr %4, align 4, !tbaa !24
  %25 = load i32, ptr %4, align 4, !tbaa !24
  %26 = load i32, ptr %5, align 4, !tbaa !24
  %27 = sub nsw i32 %25, %26
  %28 = call i32 (ptr, ...) @printf(ptr noundef @.str, i32 noundef %23, i32 noundef %24, i32 noundef %27)
  %29 = load i32, ptr %4, align 4, !tbaa !24
  store i32 %29, ptr %5, align 4, !tbaa !24
  br label %30

30:                                               ; preds = %21
  %31 = load i32, ptr %3, align 4, !tbaa !24
  %32 = add nsw i32 %31, 1
  store i32 %32, ptr %3, align 4, !tbaa !24
  br label %6, !llvm.loop !46

33:                                               ; preds = %19
  %34 = call i32 (ptr, ...) @printf(ptr noundef @.str.1)
  %35 = load ptr, ptr %2, align 8, !tbaa !3
  %36 = getelementptr inbounds nuw %struct.Ifd_Man_t_, ptr %35, i32 0, i32 3
  call void @Vec_IntFreeP(ptr noundef %36)
  %37 = load ptr, ptr %2, align 8, !tbaa !3
  %38 = getelementptr inbounds nuw %struct.Ifd_Man_t_, ptr %37, i32 0, i32 4
  call void @Vec_IntFreeP(ptr noundef %38)
  %39 = load ptr, ptr %2, align 8, !tbaa !3
  %40 = getelementptr inbounds nuw %struct.Ifd_Man_t_, ptr %39, i32 0, i32 7
  call void @Vec_WrdFreeP(ptr noundef %40)
  %41 = load ptr, ptr %2, align 8, !tbaa !3
  %42 = getelementptr inbounds nuw %struct.Ifd_Man_t_, ptr %41, i32 0, i32 8
  call void @Vec_IntFreeP(ptr noundef %42)
  %43 = load ptr, ptr %2, align 8, !tbaa !3
  %44 = getelementptr inbounds nuw %struct.Ifd_Man_t_, ptr %43, i32 0, i32 6
  call void @Vec_IntFreeP(ptr noundef %44)
  %45 = load ptr, ptr %2, align 8, !tbaa !3
  %46 = getelementptr inbounds nuw %struct.Ifd_Man_t_, ptr %45, i32 0, i32 5
  %47 = load ptr, ptr %46, align 8, !tbaa !19
  call void @Hsh_IntManStop(ptr noundef %47)
  %48 = load ptr, ptr %2, align 8, !tbaa !3
  %49 = getelementptr inbounds nuw %struct.Ifd_Man_t_, ptr %48, i32 0, i32 9
  call void @Vec_IntFreeP(ptr noundef %49)
  %50 = load ptr, ptr %2, align 8, !tbaa !3
  %51 = getelementptr inbounds nuw %struct.Ifd_Man_t_, ptr %50, i32 0, i32 0
  %52 = load ptr, ptr %51, align 8, !tbaa !16
  %53 = icmp ne ptr %52, null
  br i1 %53, label %54, label %60

54:                                               ; preds = %33
  %55 = load ptr, ptr %2, align 8, !tbaa !3
  %56 = getelementptr inbounds nuw %struct.Ifd_Man_t_, ptr %55, i32 0, i32 0
  %57 = load ptr, ptr %56, align 8, !tbaa !16
  call void @free(ptr noundef %57) #12
  %58 = load ptr, ptr %2, align 8, !tbaa !3
  %59 = getelementptr inbounds nuw %struct.Ifd_Man_t_, ptr %58, i32 0, i32 0
  store ptr null, ptr %59, align 8, !tbaa !16
  br label %61

60:                                               ; preds = %33
  br label %61

61:                                               ; preds = %60, %54
  %62 = load ptr, ptr %2, align 8, !tbaa !3
  %63 = icmp ne ptr %62, null
  br i1 %63, label %64, label %66

64:                                               ; preds = %61
  %65 = load ptr, ptr %2, align 8, !tbaa !3
  call void @free(ptr noundef %65) #12
  store ptr null, ptr %2, align 8, !tbaa !3
  br label %67

66:                                               ; preds = %61
  br label %67

67:                                               ; preds = %66, %64
  call void @llvm.lifetime.end.p0(i64 4, ptr %5) #12
  call void @llvm.lifetime.end.p0(i64 4, ptr %4) #12
  call void @llvm.lifetime.end.p0(i64 4, ptr %3) #12
  ret void
}