; Function Attrs: nounwind uwtable
define void @Ifd_ManStop(ptr noundef captures(none) %0) local_unnamed_addr #5 {
  %2 = getelementptr inbounds nuw i8, ptr %0, i64 40
  %3 = load ptr, ptr %2, align 8, !tbaa !36
  %4 = getelementptr i8, ptr %3, i64 4
  %.val38 = load i32, ptr %4, align 4, !tbaa !18
  %5 = icmp sgt i32 %.val38, 1
  br i1 %5, label %.lr.ph, label %.critedge

.lr.ph:                                           ; preds = %1, %.lr.ph
  %indvars.iv = phi i64 [ %indvars.iv.next, %.lr.ph ], [ 1, %1 ]
  %6 = phi ptr [ %14, %.lr.ph ], [ %3, %1 ]
  %.040 = phi i32 [ %9, %.lr.ph ], [ 0, %1 ]
  %7 = getelementptr i8, ptr %6, i64 8
  %.val23 = load ptr, ptr %7, align 8, !tbaa !22
  %8 = getelementptr inbounds nuw i32, ptr %.val23, i64 %indvars.iv
  %9 = load i32, ptr %8, align 4, !tbaa !37
  %10 = sub nsw i32 %9, %.040
  %11 = trunc i64 %indvars.iv to i32
  %12 = add i32 %11, -1
  %13 = tail call i32 (ptr, ...) @printf(ptr noundef nonnull dereferenceable(1) @.str, i32 noundef %12, i32 noundef %9, i32 noundef %10)
  %indvars.iv.next = add nuw nsw i64 %indvars.iv, 1
  %14 = load ptr, ptr %2, align 8, !tbaa !36
  %15 = getelementptr i8, ptr %14, i64 4
  %.val = load i32, ptr %15, align 4, !tbaa !18
  %16 = sext i32 %.val to i64
  %17 = icmp slt i64 %indvars.iv.next, %16
  br i1 %17, label %.lr.ph, label %.critedge, !llvm.loop !41

.critedge:                                        ; preds = %.lr.ph, %1
  %putchar = tail call i32 @putchar(i32 10)
  %18 = getelementptr inbounds nuw i8, ptr %0, i64 16
  %19 = load ptr, ptr %18, align 8, !tbaa !42
  %20 = icmp eq ptr %19, null
  br i1 %20, label %Vec_IntFreeP.exit, label %21

21:                                               ; preds = %.critedge
  %22 = getelementptr inbounds nuw i8, ptr %19, i64 8
  %23 = load ptr, ptr %22, align 8, !tbaa !22
  %.not.i = icmp eq ptr %23, null
  br i1 %.not.i, label %26, label %.thread.i

.thread.i:                                        ; preds = %21
  tail call void @free(ptr noundef nonnull %23) #28
  %24 = load ptr, ptr %18, align 8, !tbaa !42
  %25 = getelementptr inbounds nuw i8, ptr %24, i64 8
  store ptr null, ptr %25, align 8, !tbaa !22
  br label %26

26:                                               ; preds = %.thread.i, %21
  %27 = phi ptr [ %24, %.thread.i ], [ %19, %21 ]
  tail call void @free(ptr noundef nonnull %27) #28
  store ptr null, ptr %18, align 8, !tbaa !42
  br label %Vec_IntFreeP.exit

Vec_IntFreeP.exit:                                ; preds = %.critedge, %26
  %28 = getelementptr inbounds nuw i8, ptr %0, i64 24
  %29 = load ptr, ptr %28, align 8, !tbaa !42
  %30 = icmp eq ptr %29, null
  br i1 %30, label %Vec_IntFreeP.exit26, label %31

31:                                               ; preds = %Vec_IntFreeP.exit
  %32 = getelementptr inbounds nuw i8, ptr %29, i64 8
  %33 = load ptr, ptr %32, align 8, !tbaa !22
  %.not.i24 = icmp eq ptr %33, null
  br i1 %.not.i24, label %36, label %.thread.i25

.thread.i25:                                      ; preds = %31
  tail call void @free(ptr noundef nonnull %33) #28
  %34 = load ptr, ptr %28, align 8, !tbaa !42
  %35 = getelementptr inbounds nuw i8, ptr %34, i64 8
  store ptr null, ptr %35, align 8, !tbaa !22
  br label %36

36:                                               ; preds = %.thread.i25, %31
  %37 = phi ptr [ %34, %.thread.i25 ], [ %29, %31 ]
  tail call void @free(ptr noundef nonnull %37) #28
  store ptr null, ptr %28, align 8, !tbaa !42
  br label %Vec_IntFreeP.exit26

Vec_IntFreeP.exit26:                              ; preds = %Vec_IntFreeP.exit, %36
  %38 = getelementptr inbounds nuw i8, ptr %0, i64 48
  %39 = load ptr, ptr %38, align 8, !tbaa !43
  %40 = icmp eq ptr %39, null
  br i1 %40, label %Vec_WrdFreeP.exit, label %41

41:                                               ; preds = %Vec_IntFreeP.exit26
  %42 = getelementptr inbounds nuw i8, ptr %39, i64 8
  %43 = load ptr, ptr %42, align 8, !tbaa !33
  %.not.i27 = icmp eq ptr %43, null
  br i1 %.not.i27, label %46, label %.thread.i28

.thread.i28:                                      ; preds = %41
  tail call void @free(ptr noundef nonnull %43) #28
  %44 = load ptr, ptr %38, align 8, !tbaa !43
  %45 = getelementptr inbounds nuw i8, ptr %44, i64 8
  store ptr null, ptr %45, align 8, !tbaa !33
  br label %46

46:                                               ; preds = %.thread.i28, %41
  %47 = phi ptr [ %44, %.thread.i28 ], [ %39, %41 ]
  tail call void @free(ptr noundef nonnull %47) #28
  store ptr null, ptr %38, align 8, !tbaa !43
  br label %Vec_WrdFreeP.exit

Vec_WrdFreeP.exit:                                ; preds = %Vec_IntFreeP.exit26, %46
  %48 = getelementptr inbounds nuw i8, ptr %0, i64 56
  %49 = load ptr, ptr %48, align 8, !tbaa !42
  %50 = icmp eq ptr %49, null
  br i1 %50, label %Vec_IntFreeP.exit31, label %51

51:                                               ; preds = %Vec_WrdFreeP.exit
  %52 = getelementptr inbounds nuw i8, ptr %49, i64 8
  %53 = load ptr, ptr %52, align 8, !tbaa !22
  %.not.i29 = icmp eq ptr %53, null
  br i1 %.not.i29, label %56, label %.thread.i30

.thread.i30:                                      ; preds = %51
  tail call void @free(ptr noundef nonnull %53) #28
  %54 = load ptr, ptr %48, align 8, !tbaa !42
  %55 = getelementptr inbounds nuw i8, ptr %54, i64 8
  store ptr null, ptr %55, align 8, !tbaa !22
  br label %56

56:                                               ; preds = %.thread.i30, %51
  %57 = phi ptr [ %54, %.thread.i30 ], [ %49, %51 ]
  tail call void @free(ptr noundef nonnull %57) #28
  store ptr null, ptr %48, align 8, !tbaa !42
  br label %Vec_IntFreeP.exit31

Vec_IntFreeP.exit31:                              ; preds = %Vec_WrdFreeP.exit, %56
  %58 = load ptr, ptr %2, align 8, !tbaa !42
  %59 = icmp eq ptr %58, null
  br i1 %59, label %Vec_IntFreeP.exit34, label %60

60:                                               ; preds = %Vec_IntFreeP.exit31
  %61 = getelementptr inbounds nuw i8, ptr %58, i64 8
  %62 = load ptr, ptr %61, align 8, !tbaa !22
  %.not.i32 = icmp eq ptr %62, null
  br i1 %.not.i32, label %65, label %.thread.i33

.thread.i33:                                      ; preds = %60
  tail call void @free(ptr noundef nonnull %62) #28
  %63 = load ptr, ptr %2, align 8, !tbaa !42
  %64 = getelementptr inbounds nuw i8, ptr %63, i64 8
  store ptr null, ptr %64, align 8, !tbaa !22
  br label %65

65:                                               ; preds = %.thread.i33, %60
  %66 = phi ptr [ %63, %.thread.i33 ], [ %58, %60 ]
  tail call void @free(ptr noundef nonnull %66) #28
  store ptr null, ptr %2, align 8, !tbaa !42
  br label %Vec_IntFreeP.exit34

Vec_IntFreeP.exit34:                              ; preds = %Vec_IntFreeP.exit31, %65
  %67 = getelementptr inbounds nuw i8, ptr %0, i64 32
  %68 = load ptr, ptr %67, align 8, !tbaa !35
  %69 = getelementptr inbounds nuw i8, ptr %68, i64 16
  %70 = load ptr, ptr %69, align 8, !tbaa !28
  %71 = getelementptr inbounds nuw i8, ptr %70, i64 8
  %72 = load ptr, ptr %71, align 8, !tbaa !22
  %.not.i.i = icmp eq ptr %72, null
  br i1 %.not.i.i, label %Vec_IntFree.exit.i, label %73

73:                                               ; preds = %Vec_IntFreeP.exit34
  tail call void @free(ptr noundef nonnull %72) #28
  br label %Vec_IntFree.exit.i

Vec_IntFree.exit.i:                               ; preds = %73, %Vec_IntFreeP.exit34
  tail call void @free(ptr noundef nonnull %70) #28
  %74 = getelementptr inbounds nuw i8, ptr %68, i64 24
  %75 = load ptr, ptr %74, align 8, !tbaa !34
  %76 = getelementptr inbounds nuw i8, ptr %75, i64 8
  %77 = load ptr, ptr %76, align 8, !tbaa !33
  %.not.i4.i = icmp eq ptr %77, null
  br i1 %.not.i4.i, label %Hsh_IntManStop.exit, label %78

78:                                               ; preds = %Vec_IntFree.exit.i
  tail call void @free(ptr noundef nonnull %77) #28
  br label %Hsh_IntManStop.exit

Hsh_IntManStop.exit:                              ; preds = %Vec_IntFree.exit.i, %78
  tail call void @free(ptr noundef nonnull %75) #28
  tail call void @free(ptr noundef nonnull %68) #28
  %79 = getelementptr inbounds nuw i8, ptr %0, i64 64
  %80 = load ptr, ptr %79, align 8, !tbaa !42
  %81 = icmp eq ptr %80, null
  br i1 %81, label %Vec_IntFreeP.exit37, label %82

82:                                               ; preds = %Hsh_IntManStop.exit
  %83 = getelementptr inbounds nuw i8, ptr %80, i64 8
  %84 = load ptr, ptr %83, align 8, !tbaa !22
  %.not.i35 = icmp eq ptr %84, null
  br i1 %.not.i35, label %87, label %.thread.i36

.thread.i36:                                      ; preds = %82
  tail call void @free(ptr noundef nonnull %84) #28
  %85 = load ptr, ptr %79, align 8, !tbaa !42
  %86 = getelementptr inbounds nuw i8, ptr %85, i64 8
  store ptr null, ptr %86, align 8, !tbaa !22
  br label %87

87:                                               ; preds = %.thread.i36, %82
  %88 = phi ptr [ %85, %.thread.i36 ], [ %80, %82 ]
  tail call void @free(ptr noundef nonnull %88) #28
  store ptr null, ptr %79, align 8, !tbaa !42
  br label %Vec_IntFreeP.exit37

Vec_IntFreeP.exit37:                              ; preds = %Hsh_IntManStop.exit, %87
  %89 = load ptr, ptr %0, align 8, !tbaa !17
  %.not = icmp eq ptr %89, null
  br i1 %.not, label %91, label %90

90:                                               ; preds = %Vec_IntFreeP.exit37
  tail call void @free(ptr noundef nonnull %89) #28
  br label %91

91:                                               ; preds = %90, %Vec_IntFreeP.exit37
  tail call void @free(ptr noundef nonnull %0) #28
  ret void
}